Certificate:
    Data:
        Version: 3 (0x2)
        Serial Number: 4096 (0x1000)
        Signature Algorithm: sha256WithRSAEncryption
        Issuer: C=PK, ST=Sindh, L=Karachi, O=FAST NUCES, OU=BSCS, CN=Jatin Kesnani/emailAddress=k213204@nu.edu.pk
        Validity
            Not Before: Oct 23 22:09:32 2024 GMT
            Not After : Oct 21 22:09:32 2034 GMT
        Subject: C=PK, O=Kesnani2024 Inc., CN=www.kesnani2024.com
        Subject Public Key Info:
            Public Key Algorithm: rsaEncryption
                RSA Public-Key: (2048 bit)
                Modulus:
                    00:9a:ee:4a:38:9c:4b:bf:71:87:62:24:87:64:a7:
                    f8:3a:1f:c0:4c:eb:23:70:bd:8e:65:0e:96:8d:2d:
                    d5:e2:a8:28:f6:db:e9:68:0c:bf:be:4b:df:f0:bd:
                    6a:b7:77:b5:d3:10:54:66:43:2f:e5:64:86:58:a2:
                    8c:f7:61:23:a8:34:b1:16:36:87:7b:08:50:9b:01:
                    1b:16:ca:8e:9c:ae:af:3e:36:8a:8d:87:9e:03:10:
                    04:d6:ea:73:7e:14:8f:b5:44:f1:04:fa:5b:bd:ae:
                    55:e5:6d:24:09:2d:40:f1:35:8a:72:1e:28:cd:8c:
                    e0:8a:1a:ef:59:0c:1a:7a:1d:3c:30:1e:ff:67:f9:
                    09:36:ff:d9:05:ef:6a:88:85:3d:66:bb:5d:e5:a8:
                    01:68:a3:c1:c9:b1:c4:a7:d0:da:75:63:6b:af:56:
                    be:89:59:63:93:ff:aa:6c:12:59:0f:20:d5:91:aa:
                    19:d7:55:07:88:56:0b:b3:8b:04:b0:8e:c1:14:0e:
                    e6:9b:1d:4c:b7:f7:ea:b0:23:55:a8:95:6a:d1:90:
                    ff:ed:46:5d:0a:91:0b:43:bf:32:88:be:2f:be:60:
                    91:6c:e3:c4:38:91:e1:5d:09:58:93:bf:5b:d9:3d:
                    1b:0b:3c:20:2d:0a:8f:df:00:02:1e:d2:03:88:f7:
                    10:1b
                Exponent: 65537 (0x10001)
        X509v3 extensions:
            X509v3 Basic Constraints: 
                CA:FALSE
            Netscape Comment: 
                OpenSSL Generated Certificate
            X509v3 Subject Key Identifier: 
                03:6E:C1:F9:1D:6F:56:01:5C:A6:56:37:ED:57:52:E2:1A:0A:99:D6
            X509v3 Authority Key Identifier: 
                keyid:AB:FC:58:86:07:DE:6A:A0:4B:3C:20:D4:5C:70:24:FB:15:C7:50:8F

            X509v3 Subject Alternative Name: 
                DNS:www.kesnani2024.com, DNS:www.kesnani2024A.com, DNS:www.kesnani2024B.com
    Signature Algorithm: sha256WithRSAEncryption
         4b:68:e1:ef:b8:a7:37:2d:7a:a6:35:1a:d5:bb:41:93:24:c6:
         3a:9a:c4:b7:ed:c3:1d:7f:2e:12:5f:c1:36:87:2f:95:4f:16:
         85:8f:b7:c6:c5:cc:42:0c:27:68:bf:07:ee:d0:75:47:2b:86:
         92:41:33:91:fe:8a:bb:d1:5c:9f:60:58:5f:77:c0:41:84:5d:
         39:cf:79:17:7f:a7:e3:28:d0:c0:1b:48:c7:fa:f1:63:5f:88:
         a8:9c:b7:26:3c:34:bc:6c:f0:4d:85:33:56:56:83:1f:a3:94:
         3d:5b:81:35:0b:a2:4c:d4:65:0d:ba:5d:8d:67:13:6d:42:d3:
         74:ab:35:0c:52:cf:57:34:1f:0c:79:be:f2:e9:c1:44:67:91:
         49:df:f1:43:89:35:a0:f1:48:6f:54:8d:93:b2:f0:67:e3:f1:
         c8:d4:e0:0e:ad:d0:aa:e6:21:a9:98:a3:29:fa:29:06:69:91:
         51:26:f0:e1:10:02:9a:ee:f1:bd:0a:4d:d2:a3:2e:90:0a:b7:
         4e:65:6c:dd:29:b6:e4:6c:41:7f:af:56:b0:8a:11:f9:b1:6c:
         1e:7f:bf:69:11:64:0e:fd:14:c1:9d:6b:30:fe:8b:10:e7:b4:
         4f:96:65:66:50:e6:01:34:8c:02:29:b5:13:99:32:ff:58:df:
         c3:98:06:70:93:91:b7:35:fe:a6:d8:74:37:2c:1d:d6:ab:c3:
         d0:0e:18:ed:3b:4b:8e:db:92:3f:54:d7:48:5e:3d:ad:0e:81:
         c2:72:2d:9d:72:a2:67:43:40:ac:42:4f:2e:b7:14:ca:83:49:
         a4:f4:f6:94:5c:b7:7c:41:ee:5b:10:62:f7:54:c5:34:1b:72:
         a2:de:e5:47:a4:16:4d:37:e9:6a:43:7c:a4:10:7a:7a:9d:6b:
         6d:f0:e4:d8:9f:da:2c:d2:7e:75:1c:6e:5d:6b:f2:47:32:6d:
         fd:66:5d:7e:4a:27:db:02:ad:48:ab:66:01:b9:14:4e:87:41:
         1e:c1:0a:6b:fa:48:fb:18:64:51:d6:29:26:65:e3:d1:dc:00:
         a0:41:03:06:3d:e3:86:bd:58:bc:4f:78:4c:e3:33:d0:0e:01:
         72:b8:52:41:51:52:a0:98:4a:e5:38:00:5f:ee:c0:07:fc:2c:
         69:b1:60:2e:6b:7e:df:01:be:28:e1:88:ea:09:c4:08:a9:a3:
         67:7c:25:7c:79:14:73:1c:fd:7e:6a:ba:39:91:f7:98:9d:3d:
         13:1a:e5:df:b2:ec:97:01:fc:72:63:b9:fe:97:75:1b:5d:2b:
         89:29:46:1f:19:f2:68:d7:3e:ff:88:56:43:03:d1:16:16:8a:
         d3:c9:a2:54:63:41:75:b8
-----BEGIN CERTIFICATE-----
MIIFGTCCAwGgAwIBAgICEAAwDQYJKoZIhvcNAQELBQAwgY0xCzAJBgNVBAYTAlBL
MQ4wDAYDVQQIDAVTaW5kaDEQMA4GA1UEBwwHS2FyYWNoaTETMBEGA1UECgwKRkFT
VCBOVUNFUzENMAsGA1UECwwEQlNDUzEWMBQGA1UEAwwNSmF0aW4gS2VzbmFuaTEg
MB4GCSqGSIb3DQEJARYRazIxMzIwNEBudS5lZHUucGswHhcNMjQxMDIzMjIwOTMy
WhcNMzQxMDIxMjIwOTMyWjBGMQswCQYDVQQGEwJQSzEZMBcGA1UECgwQS2VzbmFu
aTIwMjQgSW5jLjEcMBoGA1UEAwwTd3d3Lmtlc25hbmkyMDI0LmNvbTCCASIwDQYJ
KoZIhvcNAQEBBQADggEPADCCAQoCggEBAJruSjicS79xh2Ikh2Sn+DofwEzrI3C9
jmUOlo0t1eKoKPbb6WgMv75L3/C9ard3tdMQVGZDL+VkhliijPdhI6g0sRY2h3sI
UJsBGxbKjpyurz42io2HngMQBNbqc34Uj7VE8QT6W72uVeVtJAktQPE1inIeKM2M
4Ioa71kMGnodPDAe/2f5CTb/2QXvaoiFPWa7XeWoAWijwcmxxKfQ2nVja69WvolZ
Y5P/qmwSWQ8g1ZGqGddVB4hWC7OLBLCOwRQO5psdTLf36rAjVaiVatGQ/+1GXQqR
C0O/Moi+L75gkWzjxDiR4V0JWJO/W9k9Gws8IC0Kj98AAh7SA4j3EBsCAwEAAaOB
yDCBxTAJBgNVHRMEAjAAMCwGCWCGSAGG+EIBDQQfFh1PcGVuU1NMIEdlbmVyYXRl
ZCBDZXJ0aWZpY2F0ZTAdBgNVHQ4EFgQUA27B+R1vVgFcplY37VdS4hoKmdYwHwYD
VR0jBBgwFoAUq/xYhgfeaqBLPCDUXHAk+xXHUI8wSgYDVR0RBEMwQYITd3d3Lmtl
c25hbmkyMDI0LmNvbYIUd3d3Lmtlc25hbmkyMDI0QS5jb22CFHd3dy5rZXNuYW5p
MjAyNEIuY29tMA0GCSqGSIb3DQEBCwUAA4ICAQBLaOHvuKc3LXqmNRrVu0GTJMY6
msS37cMdfy4SX8E2hy+VTxaFj7fGxcxCDCdovwfu0HVHK4aSQTOR/oq70VyfYFhf
d8BBhF05z3kXf6fjKNDAG0jH+vFjX4ionLcmPDS8bPBNhTNWVoMfo5Q9W4E1C6JM
1GUNul2NZxNtQtN0qzUMUs9XNB8Meb7y6cFEZ5FJ3/FDiTWg8UhvVI2TsvBn4/HI
1OAOrdCq5iGpmKMp+ikGaZFRJvDhEAKa7vG9Ck3Soy6QCrdOZWzdKbbkbEF/r1aw
ihH5sWwef79pEWQO/RTBnWsw/osQ57RPlmVmUOYBNIwCKbUTmTL/WN/DmAZwk5G3
Nf6m2HQ3LB3Wq8PQDhjtO0uO25I/VNdIXj2tDoHCci2dcqJnQ0CsQk8utxTKg0mk
9PaUXLd8Qe5bEGL3VMU0G3Ki3uVHpBZNN+lqQ3ykEHp6nWtt8OTYn9os0n51HG5d
a/JHMm39Zl1+SifbAq1Iq2YBuRROh0EewQpr+kj7GGRR1ikmZePR3ACgQQMGPeOG
vVi8T3hM4zPQDgFyuFJBUVKgmErlOABf7sAH/CxpsWAua37fAb4o4YjqCcQIqaNn
fCV8eRRzHP1+aro5kfeYnT0TGuXfsuyXAfxyY7n+l3UbXSuJKUYfGfJo1z7/iFZD
A9EWForTyaJUY0F1uA==
-----END CERTIFICATE-----
