Certificate:
    Data:
        Version: 3 (0x2)
        Serial Number: 4096 (0x1000)
        Signature Algorithm: sha256WithRSAEncryption
        Issuer: C=PK, ST=Sindh, L=Karachi, O=FAST NUCES, OU=BSCS, CN=Jatin Kesnani/emailAddress=k213204@nu.edu.pk
        Validity
            Not Before: Oct 26 20:43:02 2024 GMT
            Not After : Oct 24 20:43:02 2034 GMT
        Subject: C=PK, O=Kesnani2024 Inc., CN=www.kesnani2024.com
        Subject Public Key Info:
            Public Key Algorithm: rsaEncryption
                RSA Public-Key: (2048 bit)
                Modulus:
                    00:d4:2c:d0:11:f5:06:91:fa:73:12:e6:30:25:26:
                    3c:c8:66:26:fe:92:04:cb:89:a4:97:58:8e:28:c6:
                    9e:ec:d3:70:08:4e:dc:3e:96:8c:ff:fb:cb:a6:37:
                    8c:e3:1c:20:10:87:2e:01:8b:ff:14:a5:31:e6:72:
                    90:41:e2:90:54:7e:d0:b3:5b:30:4f:ee:5a:30:b2:
                    d6:dd:34:6f:72:39:a3:ad:57:98:98:5a:aa:eb:15:
                    d5:56:e3:16:a5:64:db:13:74:61:0e:46:ad:18:2d:
                    f5:09:56:fb:0f:53:65:04:a7:73:e6:42:19:b9:fe:
                    8d:3c:65:33:7d:36:12:73:a7:a5:3d:34:fd:51:d7:
                    d2:a2:65:d7:98:61:8b:76:87:7f:a4:cd:35:1c:50:
                    de:af:0d:a1:ad:21:fb:4f:2b:5b:05:c0:55:fc:9e:
                    c5:18:57:21:56:58:f5:fc:33:cd:9d:b1:9b:5f:c8:
                    ed:29:3d:60:c0:a6:a7:42:f3:94:b6:e2:64:93:2c:
                    02:04:f0:51:d1:f4:31:ab:4a:f4:74:ae:79:40:79:
                    10:4f:24:51:44:13:4e:3e:74:01:e5:28:6c:12:a3:
                    a4:e7:f2:58:31:76:dc:30:f0:ad:50:a4:35:5d:37:
                    0d:ba:30:24:59:d6:39:a3:24:d2:22:18:d9:54:d6:
                    82:27
                Exponent: 65537 (0x10001)
        X509v3 extensions:
            X509v3 Basic Constraints: 
                CA:FALSE
            Netscape Comment: 
                OpenSSL Generated Certificate
            X509v3 Subject Key Identifier: 
                26:A0:A1:C0:CF:18:66:54:7C:FC:EB:DC:D0:CF:27:94:58:EF:D8:E5
            X509v3 Authority Key Identifier: 
                keyid:BF:62:F7:00:26:1E:07:F9:1E:1D:CA:E5:D7:27:70:85:FF:2D:2C:40

            X509v3 Subject Alternative Name: 
                DNS:www.kesnani2024.com, DNS:www.kesnani2024A.com, DNS:www.kesnani2024B.com
    Signature Algorithm: sha256WithRSAEncryption
         00:e7:4a:0e:f3:cf:40:59:5d:4f:8d:82:f6:ed:62:4b:38:fe:
         72:b3:17:44:62:01:33:9e:09:d5:34:8c:6a:40:99:7f:3f:82:
         09:36:5b:1f:ca:9b:bf:78:37:dd:61:7e:24:f7:c4:82:95:de:
         5c:bd:d7:fa:00:dc:f0:89:19:d1:ef:69:da:24:e5:69:0d:05:
         15:d9:0a:28:19:a3:7b:04:35:8b:af:5a:5c:2e:fc:7c:92:fd:
         50:69:ce:68:8d:38:de:9a:56:f2:f0:23:cb:0b:ea:d7:e7:8c:
         33:bf:1e:05:06:80:b9:6f:ea:8e:c7:b5:4d:dd:3a:37:29:20:
         4e:cb:53:2a:56:c5:9e:61:bf:2e:3a:f3:78:e5:70:4f:39:63:
         9e:e5:b2:ea:44:10:1b:8f:40:d0:67:80:44:af:5a:69:55:61:
         b3:39:60:84:c0:83:d8:19:8f:26:f9:a4:4a:15:5c:55:83:4d:
         18:9c:05:0d:82:e5:a6:0e:6a:22:9a:22:ec:f8:b7:97:5d:0e:
         50:47:d7:27:0b:36:82:b8:71:93:fc:19:3e:e9:81:0d:dc:6f:
         bd:02:05:8d:8c:39:ad:36:07:4e:77:a9:33:28:ef:1f:9f:01:
         d9:dc:46:4b:ea:f4:ab:86:ee:6d:73:a2:17:5e:af:c5:e4:87:
         0d:e8:72:89:ea:49:b1:bd:9a:b8:be:7f:84:a5:11:4d:1d:9d:
         1c:e3:28:e8:f9:5b:4e:77:c3:0b:37:65:96:3e:d4:70:6c:70:
         31:43:d0:6e:4f:c5:99:cd:c9:3f:ad:ae:ff:33:36:49:f1:58:
         1a:b0:11:5c:a5:46:77:c9:c3:d3:1e:0a:01:f8:50:ec:87:9a:
         62:b6:6d:03:08:88:dc:56:bc:f2:e3:52:c7:e0:d5:7d:32:d5:
         cb:5b:24:25:5c:ec:43:5b:2b:93:f5:19:ff:f0:5d:6f:16:f6:
         d1:f5:aa:73:2a:50:30:5d:e8:31:76:3e:6d:83:42:05:56:e6:
         fd:2a:c5:eb:de:08:86:10:71:04:e9:19:80:f2:6f:67:7f:b8:
         93:76:09:38:6e:c4:a0:2c:e3:91:3f:78:d5:69:a7:84:ac:14:
         da:cc:8f:8b:73:aa:01:72:df:c6:a9:46:b4:6d:6d:fe:79:6b:
         72:d0:1a:80:52:7f:85:d5:7d:07:ef:2e:e7:d8:3d:30:47:c4:
         17:59:55:3d:d9:16:12:94:bc:fe:c0:f2:4e:68:8a:8f:3f:1e:
         72:45:b3:5f:eb:92:2c:93:9e:40:0e:69:95:b6:50:d2:0f:7f:
         fb:46:61:34:8f:cb:95:23:55:48:a1:0e:26:25:04:6a:f5:78:
         87:b1:eb:09:7e:02:d5:8f
-----BEGIN CERTIFICATE-----
MIIFGTCCAwGgAwIBAgICEAAwDQYJKoZIhvcNAQELBQAwgY0xCzAJBgNVBAYTAlBL
MQ4wDAYDVQQIDAVTaW5kaDEQMA4GA1UEBwwHS2FyYWNoaTETMBEGA1UECgwKRkFT
VCBOVUNFUzENMAsGA1UECwwEQlNDUzEWMBQGA1UEAwwNSmF0aW4gS2VzbmFuaTEg
MB4GCSqGSIb3DQEJARYRazIxMzIwNEBudS5lZHUucGswHhcNMjQxMDI2MjA0MzAy
WhcNMzQxMDI0MjA0MzAyWjBGMQswCQYDVQQGEwJQSzEZMBcGA1UECgwQS2VzbmFu
aTIwMjQgSW5jLjEcMBoGA1UEAwwTd3d3Lmtlc25hbmkyMDI0LmNvbTCCASIwDQYJ
KoZIhvcNAQEBBQADggEPADCCAQoCggEBANQs0BH1BpH6cxLmMCUmPMhmJv6SBMuJ
pJdYjijGnuzTcAhO3D6WjP/7y6Y3jOMcIBCHLgGL/xSlMeZykEHikFR+0LNbME/u
WjCy1t00b3I5o61XmJhaqusV1VbjFqVk2xN0YQ5GrRgt9QlW+w9TZQSnc+ZCGbn+
jTxlM302EnOnpT00/VHX0qJl15hhi3aHf6TNNRxQ3q8Noa0h+08rWwXAVfyexRhX
IVZY9fwzzZ2xm1/I7Sk9YMCmp0LzlLbiZJMsAgTwUdH0MatK9HSueUB5EE8kUUQT
Tj50AeUobBKjpOfyWDF23DDwrVCkNV03DbowJFnWOaMk0iIY2VTWgicCAwEAAaOB
yDCBxTAJBgNVHRMEAjAAMCwGCWCGSAGG+EIBDQQfFh1PcGVuU1NMIEdlbmVyYXRl
ZCBDZXJ0aWZpY2F0ZTAdBgNVHQ4EFgQUJqChwM8YZlR8/Ovc0M8nlFjv2OUwHwYD
VR0jBBgwFoAUv2L3ACYeB/keHcrl1ydwhf8tLEAwSgYDVR0RBEMwQYITd3d3Lmtl
c25hbmkyMDI0LmNvbYIUd3d3Lmtlc25hbmkyMDI0QS5jb22CFHd3dy5rZXNuYW5p
MjAyNEIuY29tMA0GCSqGSIb3DQEBCwUAA4ICAQAA50oO889AWV1PjYL27WJLOP5y
sxdEYgEzngnVNIxqQJl/P4IJNlsfypu/eDfdYX4k98SCld5cvdf6ANzwiRnR72na
JOVpDQUV2QooGaN7BDWLr1pcLvx8kv1Qac5ojTjemlby8CPLC+rX54wzvx4FBoC5
b+qOx7VN3To3KSBOy1MqVsWeYb8uOvN45XBPOWOe5bLqRBAbj0DQZ4BEr1ppVWGz
OWCEwIPYGY8m+aRKFVxVg00YnAUNguWmDmoimiLs+LeXXQ5QR9cnCzaCuHGT/Bk+
6YEN3G+9AgWNjDmtNgdOd6kzKO8fnwHZ3EZL6vSrhu5tc6IXXq/F5IcN6HKJ6kmx
vZq4vn+EpRFNHZ0c4yjo+VtOd8MLN2WWPtRwbHAxQ9BuT8WZzck/ra7/MzZJ8Vga
sBFcpUZ3ycPTHgoB+FDsh5pitm0DCIjcVrzy41LH4NV9MtXLWyQlXOxDWyuT9Rn/
8F1vFvbR9apzKlAwXegxdj5tg0IFVub9KsXr3giGEHEE6RmA8m9nf7iTdgk4bsSg
LOORP3jVaaeErBTazI+Lc6oBct/GqUa0bW3+eWty0BqAUn+F1X0H7y7n2D0wR8QX
WVU92RYSlLz+wPJOaIqPPx5yRbNf65Isk55ADmmVtlDSD3/7RmE0j8uVI1VIoQ4m
JQRq9XiHsesJfgLVjw==
-----END CERTIFICATE-----
